target datalayout = "e-m:e-p270:32:32-p271:32:32-p272:64:64-i64:64-i128:128-f80:128-n8:16:32:64-S128"
target triple = "x86_64-pc-linux-gnu"

%"struct.ODDLParser::Property" = type { ptr, ptr, ptr, ptr }

; Function Attrs: mustprogress uwtable
define internal void @_ZN10ODDLParserL22createPropertyWithDataEPNS_4TextEPNS_5ValueEPPNS_8PropertyE(ptr noundef %0, ptr noundef %1, ptr noundef %2) #6 personality ptr @__gxx_personality_v0 {
  %4 = alloca ptr, align 8
  %5 = alloca ptr, align 8
  %6 = alloca ptr, align 8
  %7 = alloca ptr, align 8
  %8 = alloca i32, align 4
  store ptr %0, ptr %4, align 8
  store ptr %1, ptr %5, align 8
  store ptr %2, ptr %6, align 8
  %9 = load ptr, ptr %5, align 8
  %10 = icmp ne ptr null, %9
  br i1 %10, label %11, label %24

11:                                               ; preds = %3
  %12 = call noalias noundef nonnull ptr @_Znwm(i64 noundef 32) #21
  %13 = load ptr, ptr %4, align 8
  invoke void @_ZN10ODDLParser8PropertyC1EPNS_4TextE(ptr noundef nonnull align 8 dereferenceable(32) %12, ptr noundef %13)
          to label %14 unwind label %20

14:                                               ; preds = %11
  %15 = load ptr, ptr %6, align 8
  store ptr %12, ptr %15, align 8
  %16 = load ptr, ptr %5, align 8
  %17 = load ptr, ptr %6, align 8
  %18 = load ptr, ptr %17, align 8
  %19 = getelementptr inbounds nuw %"struct.ODDLParser::Property", ptr %18, i32 0, i32 1
  store ptr %16, ptr %19, align 8
  br label %24

20:                                               ; preds = %11
  %21 = landingpad { ptr, i32 }
          cleanup
  %22 = extractvalue { ptr, i32 } %21, 0
  store ptr %22, ptr %7, align 8
  %23 = extractvalue { ptr, i32 } %21, 1
  store i32 %23, ptr %8, align 4
  call void @_ZdlPvm(ptr noundef %12, i64 noundef 32) #20
  br label %25

24:                                               ; preds = %14, %3
  ret void

25:                                               ; preds = %20
  %26 = load ptr, ptr %7, align 8
  %27 = load i32, ptr %8, align 4
  %28 = insertvalue { ptr, i32 } poison, ptr %26, 0
  %29 = insertvalue { ptr, i32 } %28, i32 %27, 1
  resume { ptr, i32 } %29
}