; Function Attrs: mustprogress uwtable
define internal fastcc void @_ZN10ODDLParserL22createPropertyWithDataEPNS_4TextEPNS_5ValueEPPNS_8PropertyE(ptr noundef %0, ptr noundef %1, ptr noundef writeonly captures(none) %2) unnamed_addr #6 personality ptr @__gxx_personality_v0 {
  %.not = icmp eq ptr %1, null
  br i1 %.not, label %10, label %4

4:                                                ; preds = %3
  %5 = tail call noalias noundef nonnull dereferenceable(32) ptr @_Znwm(i64 noundef 32) #33
  invoke void @_ZN10ODDLParser8PropertyC1EPNS_4TextE(ptr noundef nonnull align 8 dereferenceable(32) %5, ptr noundef %0)
          to label %6 unwind label %8

6:                                                ; preds = %4
  store ptr %5, ptr %2, align 8
  %7 = getelementptr inbounds nuw i8, ptr %5, i64 8
  store ptr %1, ptr %7, align 8
  br label %10

8:                                                ; preds = %4
  %9 = landingpad { ptr, i32 }
          cleanup
  tail call void @_ZdlPvm(ptr noundef nonnull %5, i64 noundef 32) #30
  resume { ptr, i32 } %9

10:                                               ; preds = %6, %3
  ret void
}